; Function Attrs: nounwind uwtable
define dso_local noalias noundef ptr @xmallocz(i64 noundef %0) local_unnamed_addr #0 {
  %2 = icmp eq i64 %0, -1
  br i1 %2, label %3, label %4

3:                                                ; preds = %1
  tail call void (ptr, ...) @die(ptr noundef nonnull @.str.30) #21
  unreachable

4:                                                ; preds = %1
  %5 = add nuw i64 %0, 1
  %6 = load i64, ptr @memory_limit_check.limit, align 8, !tbaa !4
  %.not.i.i.i = icmp eq i64 %6, 0
  br i1 %.not.i.i.i, label %7, label %9

7:                                                ; preds = %4
  %8 = tail call i64 @git_env_ulong(ptr noundef nonnull @.str.31, i64 noundef 0) #20
  %.not7.i.i.i = icmp eq i64 %8, 0
  %spec.store.select.i.i.i = select i1 %.not7.i.i.i, i64 -1, i64 %8
  store i64 %spec.store.select.i.i.i, ptr @memory_limit_check.limit, align 8
  br label %9

9:                                                ; preds = %7, %4
  %10 = phi i64 [ %spec.store.select.i.i.i, %7 ], [ %6, %4 ]
  %.not.i = icmp ult i64 %0, %10
  br i1 %.not.i, label %12, label %11

11:                                               ; preds = %9
  tail call void (ptr, ...) @die(ptr noundef nonnull @.str.32, i64 noundef %5, i64 noundef %10) #21
  unreachable

12:                                               ; preds = %9
  %13 = tail call noalias ptr @malloc(i64 noundef %5) #22
  %.not12.i.i = icmp eq ptr %13, null
  br i1 %.not12.i.i, label %14, label %do_xmallocz.exit

14:                                               ; preds = %12
  tail call void (ptr, ...) @die(ptr noundef nonnull @.str.29, i64 noundef %5) #21
  unreachable

do_xmallocz.exit:                                 ; preds = %12
  %15 = getelementptr inbounds nuw i8, ptr %13, i64 %0
  store i8 0, ptr %15, align 1, !tbaa !8
  ret ptr %13
}